
/home/hugoea/CCLabs/lab-2-taco/lab2_taco/lab_02_cc_taco_lab/CC_TACO_LAB/lab/objectives/objective-a/task-05/test000.c.dbg.o:     file format elf64-x86-64


Disassembly of section .text:

0000000000000000 <compute_model_tst>:
#ifndef COMPUTE_MODEL_NAME
#define COMPUTE_MODEL_NAME baseline_model
#endif

void COMPUTE_MODEL_NAME(op_model_t *model, op_params_t *op_params, op_inputs_t *op_inputs, op_outputs_t *op_outputs, op_inouts_t *op_inouts, hwctx_t *hwctx)
{
   0:	f3 0f 1e fa          	endbr64
model->flops = ((2 * op_params->m0) * op_params->n0);
   4:	8b 06                	mov    (%rsi),%eax
   6:	8b 76 04             	mov    0x4(%rsi),%esi
   9:	c5 f8 57 c0          	vxorps %xmm0,%xmm0,%xmm0
{
   d:	48 89 f9             	mov    %rdi,%rcx
model->flops = ((2 * op_params->m0) * op_params->n0);
  10:	89 c2                	mov    %eax,%edx
  12:	0f af d6             	imul   %esi,%edx
  15:	01 d2                	add    %edx,%edx
model->bytes = (((((2 * (op_params->m0 * op_params->n0)) + op_params->m0) + op_params->n0) * sizeof(float)) * 1);
  17:	01 d0                	add    %edx,%eax
model->flops = ((2 * op_params->m0) * op_params->n0);
  19:	c5 fa 2a ca          	vcvtsi2ss %edx,%xmm0,%xmm1
model->bytes = (((((2 * (op_params->m0 * op_params->n0)) + op_params->m0) + op_params->n0) * sizeof(float)) * 1);
  1d:	01 f0                	add    %esi,%eax
  1f:	48 98                	cltq
  21:	48 c1 e0 02          	shl    $0x2,%rax
  25:	78 11                	js     38 <compute_model_tst+0x38>
  27:	c4 e1 fa 2a c0       	vcvtsi2ss %rax,%xmm0,%xmm0
model->flops = ((2 * op_params->m0) * op_params->n0);
  2c:	c5 f0 14 c8          	vunpcklps %xmm0,%xmm1,%xmm1
  30:	c5 f8 13 09          	vmovlps %xmm1,(%rcx)

}
  34:	c3                   	ret
  35:	0f 1f 00             	nopl   (%rax)
model->bytes = (((((2 * (op_params->m0 * op_params->n0)) + op_params->m0) + op_params->n0) * sizeof(float)) * 1);
  38:	48 d1 e8             	shr    $1,%rax
  3b:	c4 e1 fa 2a c0       	vcvtsi2ss %rax,%xmm0,%xmm0
  40:	c5 fa 58 c0          	vaddss %xmm0,%xmm0,%xmm0
model->flops = ((2 * op_params->m0) * op_params->n0);
  44:	c5 f0 14 c8          	vunpcklps %xmm0,%xmm1,%xmm1
  48:	c5 f8 13 09          	vmovlps %xmm1,(%rcx)
}
  4c:	c3                   	ret
  4d:	0f 1f 00             	nopl   (%rax)

0000000000000050 <compute_tst>:
void COMPUTE_NAME(op_params_t *op_params, op_inputs_t *inputs, op_outputs_t *outputs, op_inouts_t *inouts, hwctx_t *hwctx)
{
  50:	f3 0f 1e fa          	endbr64
  54:	55                   	push   %rbp
  55:	53                   	push   %rbx
const int m0 = op_params->m0;
  56:	48 63 17             	movslq (%rdi),%rdx
const int n0 = op_params->n0;
  59:	8b 6f 04             	mov    0x4(%rdi),%ebp
const int rs_a = op_params->rs_a;
  5c:	44 8b 57 08          	mov    0x8(%rdi),%r10d
const int cs_a = op_params->cs_a;
  60:	48 63 47 0c          	movslq 0xc(%rdi),%rax
float * A = inputs->A_mat;
  64:	48 8b 5e 20          	mov    0x20(%rsi),%rbx
float * x = inputs->x_vect;
  68:	4c 8b 4e 28          	mov    0x28(%rsi),%r9
float * y = inouts->y_vect;
  6c:	48 8b 49 10          	mov    0x10(%rcx),%rcx
int i0;
int j0;
for (i0 = 0; i0 < m0; i0 += 1)
  70:	85 d2                	test   %edx,%edx
  72:	7e 54                	jle    c8 <compute_tst+0x78>
  74:	48 8d 34 85 00 00 00 	lea    0x0(,%rax,4),%rsi
  7b:	00 
  7c:	48 63 c5             	movslq %ebp,%rax
  7f:	4c 8d 1c 91          	lea    (%rcx,%rdx,4),%r11
  83:	45 31 c0             	xor    %r8d,%r8d
  86:	49 8d 3c 81          	lea    (%r9,%rax,4),%rdi
{
for (j0 = 0; j0 < n0; j0 += 1)
  8a:	85 ed                	test   %ebp,%ebp
  8c:	7e 3d                	jle    cb <compute_tst+0x7b>
  8e:	66 90                	xchg   %ax,%ax
  90:	49 63 c0             	movslq %r8d,%rax
{
BEGIN_INSTRUMENTATION ;
y[i0] = (y[i0] + (A[((i0 * rs_a) + (j0 * cs_a))] * x[j0]));
  93:	c5 fa 10 09          	vmovss (%rcx),%xmm1
  97:	48 8d 14 83          	lea    (%rbx,%rax,4),%rdx
  9b:	4c 89 c8             	mov    %r9,%rax
  9e:	66 90                	xchg   %ax,%ax
  a0:	c5 fa 10 02          	vmovss (%rdx),%xmm0
  a4:	c5 fa 59 00          	vmulss (%rax),%xmm0,%xmm0
for (j0 = 0; j0 < n0; j0 += 1)
  a8:	48 83 c0 04          	add    $0x4,%rax
  ac:	48 01 f2             	add    %rsi,%rdx
y[i0] = (y[i0] + (A[((i0 * rs_a) + (j0 * cs_a))] * x[j0]));
  af:	c5 f2 58 c8          	vaddss %xmm0,%xmm1,%xmm1
  b3:	c5 fa 11 09          	vmovss %xmm1,(%rcx)
for (j0 = 0; j0 < n0; j0 += 1)
  b7:	48 39 f8             	cmp    %rdi,%rax
  ba:	75 e4                	jne    a0 <compute_tst+0x50>
for (i0 = 0; i0 < m0; i0 += 1)
  bc:	48 83 c1 04          	add    $0x4,%rcx
  c0:	45 01 d0             	add    %r10d,%r8d
  c3:	49 39 cb             	cmp    %rcx,%r11
  c6:	75 c8                	jne    90 <compute_tst+0x40>

}

}

}
  c8:	5b                   	pop    %rbx
  c9:	5d                   	pop    %rbp
  ca:	c3                   	ret
for (i0 = 0; i0 < m0; i0 += 1)
  cb:	48 83 c1 04          	add    $0x4,%rcx
  cf:	45 01 d0             	add    %r10d,%r8d
  d2:	4c 39 d9             	cmp    %r11,%rcx
  d5:	75 b3                	jne    8a <compute_tst+0x3a>
  d7:	eb ef                	jmp    c8 <compute_tst+0x78>
